target datalayout = "e-m:e-p270:32:32-p271:32:32-p272:64:64-i64:64-i128:128-f80:128-n8:16:32:64-S128"
target triple = "x86_64-pc-linux-gnu"

%struct.Vec_Int_t_ = type { i32, i32, ptr }
%struct.Bmc_Mna_t_ = type { ptr, ptr, ptr, ptr, ptr, ptr, ptr, ptr, i32, i64 }

; Function Attrs: inlinehint nounwind uwtable
define internal void @Vec_IntWriteEntry(ptr noundef %0, i32 noundef %1, i32 noundef %2) #2 {
  %4 = alloca ptr, align 8
  %5 = alloca i32, align 4
  %6 = alloca i32, align 4
  store ptr %0, ptr %4, align 8, !tbaa !51
  store i32 %1, ptr %5, align 4, !tbaa !8
  store i32 %2, ptr %6, align 4, !tbaa !8
  %7 = load i32, ptr %6, align 4, !tbaa !8
  %8 = load ptr, ptr %4, align 8, !tbaa !51
  %9 = getelementptr inbounds nuw %struct.Vec_Int_t_, ptr %8, i32 0, i32 2
  %10 = load ptr, ptr %9, align 8, !tbaa !56
  %11 = load i32, ptr %5, align 4, !tbaa !8
  %12 = sext i32 %11 to i64
  %13 = getelementptr inbounds i32, ptr %10, i64 %12
  store i32 %7, ptr %13, align 4, !tbaa !8
  ret void
}

; Function Attrs: inlinehint nounwind uwtable
define internal i32 @Vec_IntEntry(ptr noundef %0, i32 noundef %1) #2 {
  %3 = alloca ptr, align 8
  %4 = alloca i32, align 4
  store ptr %0, ptr %3, align 8, !tbaa !51
  store i32 %1, ptr %4, align 4, !tbaa !8
  %5 = load ptr, ptr %3, align 8, !tbaa !51
  %6 = getelementptr inbounds nuw %struct.Vec_Int_t_, ptr %5, i32 0, i32 2
  %7 = load ptr, ptr %6, align 8, !tbaa !56
  %8 = load i32, ptr %4, align 4, !tbaa !8
  %9 = sext i32 %8 to i64
  %10 = getelementptr inbounds i32, ptr %7, i64 %9
  %11 = load i32, ptr %10, align 4, !tbaa !8
  ret i32 %11
}

; Function Attrs: inlinehint nounwind uwtable
define internal i32 @Vec_IntSize(ptr noundef %0) #2 {
  %2 = alloca ptr, align 8
  store ptr %0, ptr %2, align 8, !tbaa !51
  %3 = load ptr, ptr %2, align 8, !tbaa !51
  %4 = getelementptr inbounds nuw %struct.Vec_Int_t_, ptr %3, i32 0, i32 1
  %5 = load i32, ptr %4, align 4, !tbaa !52
  ret i32 %5
}

; Function Attrs: nounwind uwtable
define i32 @Gia_ManBmcAssignVarIds(ptr noundef %0, ptr noundef %1, ptr noundef %2, ptr noundef %3) #0 {
  %5 = alloca ptr, align 8
  %6 = alloca ptr, align 8
  %7 = alloca ptr, align 8
  %8 = alloca ptr, align 8
  %9 = alloca i32, align 4
  %10 = alloca i32, align 4
  %11 = alloca i32, align 4
  store ptr %0, ptr %5, align 8, !tbaa !76
  store ptr %1, ptr %6, align 8, !tbaa !51
  store ptr %2, ptr %7, align 8, !tbaa !51
  store ptr %3, ptr %8, align 8, !tbaa !51
  call void @llvm.lifetime.start.p0(i64 4, ptr %9) #12
  call void @llvm.lifetime.start.p0(i64 4, ptr %10) #12
  store i32 0, ptr %10, align 4, !tbaa !8
  call void @llvm.lifetime.start.p0(i64 4, ptr %11) #12
  %12 = load ptr, ptr %5, align 8, !tbaa !76
  %13 = getelementptr inbounds nuw %struct.Bmc_Mna_t_, ptr %12, i32 0, i32 8
  %14 = load i32, ptr %13, align 8, !tbaa !86
  %15 = add nsw i32 %14, 1
  store i32 %15, ptr %13, align 8, !tbaa !86
  store i32 %14, ptr %11, align 4, !tbaa !8
  store i32 0, ptr %9, align 4, !tbaa !8
  br label %16

16:                                               ; preds = %44, %4
  %17 = load i32, ptr %9, align 4, !tbaa !8
  %18 = load ptr, ptr %6, align 8, !tbaa !51
  %19 = call i32 @Vec_IntSize(ptr noundef %18)
  %20 = icmp slt i32 %17, %19
  br i1 %20, label %21, label %25

21:                                               ; preds = %16
  %22 = load ptr, ptr %6, align 8, !tbaa !51
  %23 = load i32, ptr %9, align 4, !tbaa !8
  %24 = call i32 @Vec_IntEntry(ptr noundef %22, i32 noundef %23)
  store i32 %24, ptr %10, align 4, !tbaa !8
  br label %25

25:                                               ; preds = %21, %16
  %26 = phi i1 [ false, %16 ], [ true, %21 ]
  br i1 %26, label %27, label %47

27:                                               ; preds = %25
  %28 = load ptr, ptr %5, align 8, !tbaa !76
  %29 = getelementptr inbounds nuw %struct.Bmc_Mna_t_, ptr %28, i32 0, i32 3
  %30 = load ptr, ptr %29, align 8, !tbaa !78
  %31 = load i32, ptr %10, align 4, !tbaa !8
  %32 = call i32 @Vec_IntEntry(ptr noundef %30, i32 noundef %31)
  %33 = icmp eq i32 %32, 0
  br i1 %33, label %34, label %43

34:                                               ; preds = %27
  %35 = load ptr, ptr %5, align 8, !tbaa !76
  %36 = getelementptr inbounds nuw %struct.Bmc_Mna_t_, ptr %35, i32 0, i32 3
  %37 = load ptr, ptr %36, align 8, !tbaa !78
  %38 = load i32, ptr %10, align 4, !tbaa !8
  %39 = load ptr, ptr %5, align 8, !tbaa !76
  %40 = getelementptr inbounds nuw %struct.Bmc_Mna_t_, ptr %39, i32 0, i32 8
  %41 = load i32, ptr %40, align 8, !tbaa !86
  %42 = add nsw i32 %41, 1
  store i32 %42, ptr %40, align 8, !tbaa !86
  call void @Vec_IntWriteEntry(ptr noundef %37, i32 noundef %38, i32 noundef %41)
  br label %43

43:                                               ; preds = %34, %27
  br label %44

44:                                               ; preds = %43
  %45 = load i32, ptr %9, align 4, !tbaa !8
  %46 = add nsw i32 %45, 1
  store i32 %46, ptr %9, align 4, !tbaa !8
  br label %16, !llvm.loop !94

47:                                               ; preds = %25
  %48 = load ptr, ptr %7, align 8, !tbaa !51
  %49 = call i32 @Vec_IntSize(ptr noundef %48)
  %50 = sub nsw i32 %49, 1
  store i32 %50, ptr %9, align 4, !tbaa !8
  br label %51

51:                                               ; preds = %69, %47
  %52 = load i32, ptr %9, align 4, !tbaa !8
  %53 = icmp sge i32 %52, 0
  br i1 %53, label %54, label %58

54:                                               ; preds = %51
  %55 = load ptr, ptr %7, align 8, !tbaa !51
  %56 = load i32, ptr %9, align 4, !tbaa !8
  %57 = call i32 @Vec_IntEntry(ptr noundef %55, i32 noundef %56)
  store i32 %57, ptr %10, align 4, !tbaa !8
  br label %58

58:                                               ; preds = %54, %51
  %59 = phi i1 [ false, %51 ], [ true, %54 ]
  br i1 %59, label %60, label %72

60:                                               ; preds = %58
  %61 = load ptr, ptr %5, align 8, !tbaa !76
  %62 = getelementptr inbounds nuw %struct.Bmc_Mna_t_, ptr %61, i32 0, i32 3
  %63 = load ptr, ptr %62, align 8, !tbaa !78
  %64 = load i32, ptr %10, align 4, !tbaa !8
  %65 = load ptr, ptr %5, align 8, !tbaa !76
  %66 = getelementptr inbounds nuw %struct.Bmc_Mna_t_, ptr %65, i32 0, i32 8
  %67 = load i32, ptr %66, align 8, !tbaa !86
  %68 = add nsw i32 %67, 1
  store i32 %68, ptr %66, align 8, !tbaa !86
  call void @Vec_IntWriteEntry(ptr noundef %63, i32 noundef %64, i32 noundef %67)
  br label %69

69:                                               ; preds = %60
  %70 = load i32, ptr %9, align 4, !tbaa !8
  %71 = add nsw i32 %70, -1
  store i32 %71, ptr %9, align 4, !tbaa !8
  br label %51, !llvm.loop !95

72:                                               ; preds = %58
  store i32 0, ptr %9, align 4, !tbaa !8
  br label %73

73:                                               ; preds = %93, %72
  %74 = load i32, ptr %9, align 4, !tbaa !8
  %75 = load ptr, ptr %8, align 8, !tbaa !51
  %76 = call i32 @Vec_IntSize(ptr noundef %75)
  %77 = icmp slt i32 %74, %76
  br i1 %77, label %78, label %82

78:                                               ; preds = %73
  %79 = load ptr, ptr %8, align 8, !tbaa !51
  %80 = load i32, ptr %9, align 4, !tbaa !8
  %81 = call i32 @Vec_IntEntry(ptr noundef %79, i32 noundef %80)
  store i32 %81, ptr %10, align 4, !tbaa !8
  br label %82

82:                                               ; preds = %78, %73
  %83 = phi i1 [ false, %73 ], [ true, %78 ]
  br i1 %83, label %84, label %96

84:                                               ; preds = %82
  %85 = load ptr, ptr %5, align 8, !tbaa !76
  %86 = getelementptr inbounds nuw %struct.Bmc_Mna_t_, ptr %85, i32 0, i32 3
  %87 = load ptr, ptr %86, align 8, !tbaa !78
  %88 = load i32, ptr %10, align 4, !tbaa !8
  %89 = load ptr, ptr %5, align 8, !tbaa !76
  %90 = getelementptr inbounds nuw %struct.Bmc_Mna_t_, ptr %89, i32 0, i32 8
  %91 = load i32, ptr %90, align 8, !tbaa !86
  %92 = add nsw i32 %91, 1
  store i32 %92, ptr %90, align 8, !tbaa !86
  call void @Vec_IntWriteEntry(ptr noundef %87, i32 noundef %88, i32 noundef %91)
  br label %93

93:                                               ; preds = %84
  %94 = load i32, ptr %9, align 4, !tbaa !8
  %95 = add nsw i32 %94, 1
  store i32 %95, ptr %9, align 4, !tbaa !8
  br label %73, !llvm.loop !96

96:                                               ; preds = %82
  %97 = load ptr, ptr %5, align 8, !tbaa !76
  %98 = getelementptr inbounds nuw %struct.Bmc_Mna_t_, ptr %97, i32 0, i32 8
  %99 = load i32, ptr %98, align 8, !tbaa !86
  %100 = load ptr, ptr %5, align 8, !tbaa !76
  %101 = getelementptr inbounds nuw %struct.Bmc_Mna_t_, ptr %100, i32 0, i32 7
  %102 = load ptr, ptr %101, align 8, !tbaa !85
  %103 = call i32 @sat_solver_nvars(ptr noundef %102)
  %104 = icmp sgt i32 %99, %103
  br i1 %104, label %105, label %112

105:                                              ; preds = %96
  %106 = load ptr, ptr %5, align 8, !tbaa !76
  %107 = getelementptr inbounds nuw %struct.Bmc_Mna_t_, ptr %106, i32 0, i32 7
  %108 = load ptr, ptr %107, align 8, !tbaa !85
  %109 = load ptr, ptr %5, align 8, !tbaa !76
  %110 = getelementptr inbounds nuw %struct.Bmc_Mna_t_, ptr %109, i32 0, i32 8
  %111 = load i32, ptr %110, align 8, !tbaa !86
  call void @sat_solver_setnvars(ptr noundef %108, i32 noundef %111)
  br label %112

112:                                              ; preds = %105, %96
  %113 = load i32, ptr %11, align 4, !tbaa !8
  call void @llvm.lifetime.end.p0(i64 4, ptr %11) #12
  call void @llvm.lifetime.end.p0(i64 4, ptr %10) #12
  call void @llvm.lifetime.end.p0(i64 4, ptr %9) #12
  ret i32 %113
}