; Function Attrs: nounwind uwtable
define i32 @Gia_ManBmcAssignVarIds(ptr noundef captures(none) %0, ptr noundef readonly captures(none) %1, ptr noundef readonly captures(none) %2, ptr noundef readonly captures(none) %3) local_unnamed_addr #0 {
  %5 = getelementptr inbounds nuw i8, ptr %0, i64 64
  %6 = load i32, ptr %5, align 8, !tbaa !81
  %7 = add nsw i32 %6, 1
  store i32 %7, ptr %5, align 8, !tbaa !81
  %8 = getelementptr i8, ptr %1, i64 4
  %.val3644 = load i32, ptr %8, align 4, !tbaa !28
  %9 = icmp sgt i32 %.val3644, 0
  br i1 %9, label %.lr.ph, label %.critedge

.lr.ph:                                           ; preds = %4
  %10 = getelementptr i8, ptr %1, i64 8
  %.val40 = load ptr, ptr %10, align 8, !tbaa !37
  %11 = getelementptr inbounds nuw i8, ptr %0, i64 24
  %12 = load ptr, ptr %11, align 8, !tbaa !73
  %13 = getelementptr i8, ptr %12, i64 8
  %.val39 = load ptr, ptr %13, align 8, !tbaa !37
  br label %14

14:                                               ; preds = %.lr.ph, %24
  %.val3658 = phi i32 [ %.val3644, %.lr.ph ], [ %.val36, %24 ]
  %indvars.iv = phi i64 [ 0, %.lr.ph ], [ %indvars.iv.next, %24 ]
  %15 = getelementptr inbounds nuw i32, ptr %.val40, i64 %indvars.iv
  %16 = load i32, ptr %15, align 4, !tbaa !38
  %17 = sext i32 %16 to i64
  %18 = getelementptr inbounds i32, ptr %.val39, i64 %17
  %19 = load i32, ptr %18, align 4, !tbaa !38
  %20 = icmp eq i32 %19, 0
  br i1 %20, label %21, label %24

21:                                               ; preds = %14
  %22 = load i32, ptr %5, align 8, !tbaa !81
  %23 = add nsw i32 %22, 1
  store i32 %23, ptr %5, align 8, !tbaa !81
  store i32 %22, ptr %18, align 4, !tbaa !38
  %.val36.pre = load i32, ptr %8, align 4, !tbaa !28
  br label %24

24:                                               ; preds = %14, %21
  %.val36 = phi i32 [ %.val3658, %14 ], [ %.val36.pre, %21 ]
  %indvars.iv.next = add nuw nsw i64 %indvars.iv, 1
  %25 = sext i32 %.val36 to i64
  %26 = icmp slt i64 %indvars.iv.next, %25
  br i1 %26, label %14, label %.critedge, !llvm.loop !89

.critedge:                                        ; preds = %24, %4
  %27 = getelementptr i8, ptr %2, i64 4
  %.val35 = load i32, ptr %27, align 4, !tbaa !28
  %28 = icmp sgt i32 %.val35, 0
  br i1 %28, label %.lr.ph47, label %.critedge2.preheader

.lr.ph47:                                         ; preds = %.critedge
  %29 = getelementptr i8, ptr %2, i64 8
  %.val38 = load ptr, ptr %29, align 8, !tbaa !37
  %30 = getelementptr inbounds nuw i8, ptr %0, i64 24
  %31 = load ptr, ptr %30, align 8, !tbaa !73
  %32 = getelementptr i8, ptr %31, i64 8
  %.val42 = load ptr, ptr %32, align 8, !tbaa !37
  %33 = zext nneg i32 %.val35 to i64
  br label %40

.critedge2.preheader:                             ; preds = %40, %.critedge
  %34 = getelementptr i8, ptr %3, i64 4
  %.val48 = load i32, ptr %34, align 4, !tbaa !28
  %35 = icmp sgt i32 %.val48, 0
  br i1 %35, label %.lr.ph50, label %.critedge4

.lr.ph50:                                         ; preds = %.critedge2.preheader
  %36 = getelementptr i8, ptr %3, i64 8
  %.val37 = load ptr, ptr %36, align 8, !tbaa !37
  %37 = getelementptr inbounds nuw i8, ptr %0, i64 24
  %38 = load ptr, ptr %37, align 8, !tbaa !73
  %39 = getelementptr i8, ptr %38, i64 8
  %.val41 = load ptr, ptr %39, align 8, !tbaa !37
  br label %.critedge2

40:                                               ; preds = %.lr.ph47, %40
  %indvars.iv52 = phi i64 [ %33, %.lr.ph47 ], [ %indvars.iv.next53, %40 ]
  %indvars.iv.next53 = add nsw i64 %indvars.iv52, -1
  %41 = getelementptr inbounds nuw i32, ptr %.val38, i64 %indvars.iv.next53
  %42 = load i32, ptr %41, align 4, !tbaa !38
  %43 = load i32, ptr %5, align 8, !tbaa !81
  %44 = add nsw i32 %43, 1
  store i32 %44, ptr %5, align 8, !tbaa !81
  %45 = sext i32 %42 to i64
  %46 = getelementptr inbounds i32, ptr %.val42, i64 %45
  store i32 %43, ptr %46, align 4, !tbaa !38
  %47 = icmp samesign ugt i64 %indvars.iv52, 1
  br i1 %47, label %40, label %.critedge2.preheader, !llvm.loop !90

.critedge2:                                       ; preds = %.lr.ph50, %.critedge2
  %indvars.iv55 = phi i64 [ 0, %.lr.ph50 ], [ %indvars.iv.next56, %.critedge2 ]
  %48 = getelementptr inbounds nuw i32, ptr %.val37, i64 %indvars.iv55
  %49 = load i32, ptr %48, align 4, !tbaa !38
  %50 = load i32, ptr %5, align 8, !tbaa !81
  %51 = add nsw i32 %50, 1
  store i32 %51, ptr %5, align 8, !tbaa !81
  %52 = sext i32 %49 to i64
  %53 = getelementptr inbounds i32, ptr %.val41, i64 %52
  store i32 %50, ptr %53, align 4, !tbaa !38
  %indvars.iv.next56 = add nuw nsw i64 %indvars.iv55, 1
  %.val = load i32, ptr %34, align 4, !tbaa !28
  %54 = sext i32 %.val to i64
  %55 = icmp slt i64 %indvars.iv.next56, %54
  br i1 %55, label %.critedge2, label %.critedge4, !llvm.loop !91

.critedge4:                                       ; preds = %.critedge2, %.critedge2.preheader
  %56 = load i32, ptr %5, align 8, !tbaa !81
  %57 = getelementptr inbounds nuw i8, ptr %0, i64 56
  %58 = load ptr, ptr %57, align 8, !tbaa !80
  %59 = tail call i32 @sat_solver_nvars(ptr noundef %58) #19
  %60 = icmp sgt i32 %56, %59
  br i1 %60, label %61, label %64

61:                                               ; preds = %.critedge4
  %62 = load ptr, ptr %57, align 8, !tbaa !80
  %63 = load i32, ptr %5, align 8, !tbaa !81
  tail call void @sat_solver_setnvars(ptr noundef %62, i32 noundef %63) #19
  br label %64

64:                                               ; preds = %61, %.critedge4
  ret i32 %6
}